	.syntax unified
	.cpu cortex-m4
	.eabi_attribute 27, 3
	.eabi_attribute 28, 1
	.fpu fpv4-sp-d16
	.eabi_attribute 20, 1
	.eabi_attribute 21, 1
	.eabi_attribute 23, 3
	.eabi_attribute 24, 1
	.eabi_attribute 25, 1
	.eabi_attribute 26, 1
	.eabi_attribute 30, 2
	.eabi_attribute 34, 1
	.eabi_attribute 18, 4
	.thumb
	.file	"delay.c"
	.text
.Ltext0:
	.cfi_sections	.debug_frame
	.align	2
	.global	getD1
	.thumb
	.thumb_func
	.type	getD1, %function
getD1:
.LFB110:
	.file 1 "delay.c"
	.loc 1 21 0
	.cfi_startproc
	@ args = 0, pretend = 0, frame = 0
	@ frame_needed = 0, uses_anonymous_args = 0
	@ link register save eliminated.
	.loc 1 22 0
	ldr	r3, .L2
	ldr	r0, [r3]
	.loc 1 23 0
	bx	lr
.L3:
	.align	2
.L2:
	.word	.LANCHOR0
	.cfi_endproc
.LFE110:
	.size	getD1, .-getD1
	.align	2
	.global	getD5
	.thumb
	.thumb_func
	.type	getD5, %function
getD5:
.LFB111:
	.loc 1 26 0
	.cfi_startproc
	@ args = 0, pretend = 0, frame = 0
	@ frame_needed = 0, uses_anonymous_args = 0
	@ link register save eliminated.
	.loc 1 27 0
	ldr	r3, .L5
	ldr	r0, [r3, #4]
	.loc 1 28 0
	bx	lr
.L6:
	.align	2
.L5:
	.word	.LANCHOR0
	.cfi_endproc
.LFE111:
	.size	getD5, .-getD5
	.align	2
	.global	getD2
	.thumb
	.thumb_func
	.type	getD2, %function
getD2:
.LFB112:
	.loc 1 31 0
	.cfi_startproc
	@ args = 0, pretend = 0, frame = 0
	@ frame_needed = 0, uses_anonymous_args = 0
	@ link register save eliminated.
	.loc 1 32 0
	ldr	r3, .L8
	ldr	r0, [r3, #8]
	.loc 1 33 0
	bx	lr
.L9:
	.align	2
.L8:
	.word	.LANCHOR0
	.cfi_endproc
.LFE112:
	.size	getD2, .-getD2
	.align	2
	.global	getD3
	.thumb
	.thumb_func
	.type	getD3, %function
getD3:
.LFB113:
	.loc 1 36 0
	.cfi_startproc
	@ args = 0, pretend = 0, frame = 0
	@ frame_needed = 0, uses_anonymous_args = 0
	@ link register save eliminated.
	.loc 1 37 0
	ldr	r3, .L11
	ldr	r0, [r3, #12]
	.loc 1 38 0
	bx	lr
.L12:
	.align	2
.L11:
	.word	.LANCHOR0
	.cfi_endproc
.LFE113:
	.size	getD3, .-getD3
	.align	2
	.global	getD4
	.thumb
	.thumb_func
	.type	getD4, %function
getD4:
.LFB114:
	.loc 1 41 0
	.cfi_startproc
	@ args = 0, pretend = 0, frame = 0
	@ frame_needed = 0, uses_anonymous_args = 0
	@ link register save eliminated.
	.loc 1 42 0
	ldr	r3, .L14
	ldr	r0, [r3, #16]
	.loc 1 43 0
	bx	lr
.L15:
	.align	2
.L14:
	.word	.LANCHOR0
	.cfi_endproc
.LFE114:
	.size	getD4, .-getD4
	.align	2
	.global	getD6
	.thumb
	.thumb_func
	.type	getD6, %function
getD6:
.LFB115:
	.loc 1 46 0
	.cfi_startproc
	@ args = 0, pretend = 0, frame = 0
	@ frame_needed = 0, uses_anonymous_args = 0
	@ link register save eliminated.
	.loc 1 47 0
	ldr	r3, .L17
	ldr	r0, [r3, #20]
	.loc 1 48 0
	bx	lr
.L18:
	.align	2
.L17:
	.word	.LANCHOR0
	.cfi_endproc
.LFE115:
	.size	getD6, .-getD6
	.align	2
	.global	setB1
	.thumb
	.thumb_func
	.type	setB1, %function
setB1:
.LFB116:
	.loc 1 51 0
	.cfi_startproc
	@ args = 0, pretend = 0, frame = 0
	@ frame_needed = 0, uses_anonymous_args = 0
	@ link register save eliminated.
.LVL0:
	.loc 1 52 0
	ldr	r3, .L20
	str	r0, [r3]
	bx	lr
.L21:
	.align	2
.L20:
	.word	PERIOD
	.cfi_endproc
.LFE116:
	.size	setB1, .-setB1
	.align	2
	.global	setB2
	.thumb
	.thumb_func
	.type	setB2, %function
setB2:
.LFB117:
	.loc 1 56 0
	.cfi_startproc
	@ args = 0, pretend = 0, frame = 0
	@ frame_needed = 0, uses_anonymous_args = 0
	@ link register save eliminated.
.LVL1:
	.loc 1 57 0
	ldr	r3, .L23
	str	r0, [r3, #4]
	bx	lr
.L24:
	.align	2
.L23:
	.word	PERIOD
	.cfi_endproc
.LFE117:
	.size	setB2, .-setB2
	.align	2
	.global	setB3
	.thumb
	.thumb_func
	.type	setB3, %function
setB3:
.LFB118:
	.loc 1 61 0
	.cfi_startproc
	@ args = 0, pretend = 0, frame = 0
	@ frame_needed = 0, uses_anonymous_args = 0
	@ link register save eliminated.
.LVL2:
	.loc 1 62 0
	ldr	r3, .L26
	str	r0, [r3, #8]
	bx	lr
.L27:
	.align	2
.L26:
	.word	PERIOD
	.cfi_endproc
.LFE118:
	.size	setB3, .-setB3
	.align	2
	.global	setB4
	.thumb
	.thumb_func
	.type	setB4, %function
setB4:
.LFB119:
	.loc 1 66 0
	.cfi_startproc
	@ args = 0, pretend = 0, frame = 0
	@ frame_needed = 0, uses_anonymous_args = 0
	@ link register save eliminated.
.LVL3:
	.loc 1 67 0
	ldr	r3, .L29
	str	r0, [r3, #12]
	bx	lr
.L30:
	.align	2
.L29:
	.word	PERIOD
	.cfi_endproc
.LFE119:
	.size	setB4, .-setB4
	.align	2
	.global	setP_APA
	.thumb
	.thumb_func
	.type	setP_APA, %function
setP_APA:
.LFB120:
	.loc 1 70 0
	.cfi_startproc
	@ args = 0, pretend = 0, frame = 0
	@ frame_needed = 0, uses_anonymous_args = 0
	@ link register save eliminated.
.LVL4:
	.loc 1 71 0
	ldr	r3, .L32
	str	r0, [r3]
	bx	lr
.L33:
	.align	2
.L32:
	.word	PERIOD_APA
	.cfi_endproc
.LFE120:
	.size	setP_APA, .-setP_APA
	.align	2
	.global	setP_WS
	.thumb
	.thumb_func
	.type	setP_WS, %function
setP_WS:
.LFB121:
	.loc 1 75 0
	.cfi_startproc
	@ args = 0, pretend = 0, frame = 0
	@ frame_needed = 0, uses_anonymous_args = 0
	@ link register save eliminated.
.LVL5:
	.loc 1 76 0
	ldr	r3, .L35
	str	r0, [r3]
	bx	lr
.L36:
	.align	2
.L35:
	.word	PERIOD_WS
	.cfi_endproc
.LFE121:
	.size	setP_WS, .-setP_WS
	.align	2
	.global	getB1
	.thumb
	.thumb_func
	.type	getB1, %function
getB1:
.LFB122:
	.loc 1 80 0
	.cfi_startproc
	@ args = 0, pretend = 0, frame = 0
	@ frame_needed = 0, uses_anonymous_args = 0
	@ link register save eliminated.
	.loc 1 81 0
	ldr	r3, .L38
	ldr	r0, [r3]
	.loc 1 82 0
	bx	lr
.L39:
	.align	2
.L38:
	.word	PERIOD
	.cfi_endproc
.LFE122:
	.size	getB1, .-getB1
	.align	2
	.global	getB2
	.thumb
	.thumb_func
	.type	getB2, %function
getB2:
.LFB123:
	.loc 1 85 0
	.cfi_startproc
	@ args = 0, pretend = 0, frame = 0
	@ frame_needed = 0, uses_anonymous_args = 0
	@ link register save eliminated.
	.loc 1 86 0
	ldr	r3, .L41
	ldr	r0, [r3, #4]
	.loc 1 87 0
	bx	lr
.L42:
	.align	2
.L41:
	.word	PERIOD
	.cfi_endproc
.LFE123:
	.size	getB2, .-getB2
	.align	2
	.global	getB3
	.thumb
	.thumb_func
	.type	getB3, %function
getB3:
.LFB124:
	.loc 1 90 0
	.cfi_startproc
	@ args = 0, pretend = 0, frame = 0
	@ frame_needed = 0, uses_anonymous_args = 0
	@ link register save eliminated.
	.loc 1 91 0
	ldr	r3, .L44
	ldr	r0, [r3, #8]
	.loc 1 92 0
	bx	lr
.L45:
	.align	2
.L44:
	.word	PERIOD
	.cfi_endproc
.LFE124:
	.size	getB3, .-getB3
	.align	2
	.global	getB4
	.thumb
	.thumb_func
	.type	getB4, %function
getB4:
.LFB125:
	.loc 1 95 0
	.cfi_startproc
	@ args = 0, pretend = 0, frame = 0
	@ frame_needed = 0, uses_anonymous_args = 0
	@ link register save eliminated.
	.loc 1 96 0
	ldr	r3, .L47
	ldr	r0, [r3, #12]
	.loc 1 97 0
	bx	lr
.L48:
	.align	2
.L47:
	.word	PERIOD
	.cfi_endproc
.LFE125:
	.size	getB4, .-getB4
	.align	2
	.global	getP_APA
	.thumb
	.thumb_func
	.type	getP_APA, %function
getP_APA:
.LFB126:
	.loc 1 100 0
	.cfi_startproc
	@ args = 0, pretend = 0, frame = 0
	@ frame_needed = 0, uses_anonymous_args = 0
	@ link register save eliminated.
	.loc 1 101 0
	ldr	r3, .L50
	ldr	r0, [r3]
	.loc 1 102 0
	bx	lr
.L51:
	.align	2
.L50:
	.word	PERIOD_APA
	.cfi_endproc
.LFE126:
	.size	getP_APA, .-getP_APA
	.align	2
	.global	getP_WS
	.thumb
	.thumb_func
	.type	getP_WS, %function
getP_WS:
.LFB127:
	.loc 1 105 0
	.cfi_startproc
	@ args = 0, pretend = 0, frame = 0
	@ frame_needed = 0, uses_anonymous_args = 0
	@ link register save eliminated.
	.loc 1 106 0
	ldr	r3, .L53
	ldr	r0, [r3]
	.loc 1 107 0
	bx	lr
.L54:
	.align	2
.L53:
	.word	PERIOD_WS
	.cfi_endproc
.LFE127:
	.size	getP_WS, .-getP_WS
	.align	2
	.global	setD1
	.thumb
	.thumb_func
	.type	setD1, %function
setD1:
.LFB128:
	.loc 1 111 0
	.cfi_startproc
	@ args = 0, pretend = 0, frame = 0
	@ frame_needed = 0, uses_anonymous_args = 0
	@ link register save eliminated.
.LVL6:
	.loc 1 112 0
	ldr	r2, .L56
	str	r0, [r2]
	.loc 1 113 0
	mov	r0, r3
.LVL7:
	bx	lr
.L57:
	.align	2
.L56:
	.word	.LANCHOR0
	.cfi_endproc
.LFE128:
	.size	setD1, .-setD1
	.align	2
	.global	setD2
	.thumb
	.thumb_func
	.type	setD2, %function
setD2:
.LFB129:
	.loc 1 116 0
	.cfi_startproc
	@ args = 0, pretend = 0, frame = 0
	@ frame_needed = 0, uses_anonymous_args = 0
	@ link register save eliminated.
.LVL8:
	.loc 1 117 0
	ldr	r2, .L59
	str	r0, [r2, #8]
	.loc 1 118 0
	mov	r0, r3
.LVL9:
	bx	lr
.L60:
	.align	2
.L59:
	.word	.LANCHOR0
	.cfi_endproc
.LFE129:
	.size	setD2, .-setD2
	.align	2
	.global	setD3
	.thumb
	.thumb_func
	.type	setD3, %function
setD3:
.LFB130:
	.loc 1 121 0
	.cfi_startproc
	@ args = 0, pretend = 0, frame = 0
	@ frame_needed = 0, uses_anonymous_args = 0
	@ link register save eliminated.
.LVL10:
	.loc 1 122 0
	ldr	r2, .L62
	str	r0, [r2, #12]
	.loc 1 123 0
	mov	r0, r3
.LVL11:
	bx	lr
.L63:
	.align	2
.L62:
	.word	.LANCHOR0
	.cfi_endproc
.LFE130:
	.size	setD3, .-setD3
	.align	2
	.global	setD4
	.thumb
	.thumb_func
	.type	setD4, %function
setD4:
.LFB131:
	.loc 1 126 0
	.cfi_startproc
	@ args = 0, pretend = 0, frame = 0
	@ frame_needed = 0, uses_anonymous_args = 0
	@ link register save eliminated.
.LVL12:
	.loc 1 127 0
	ldr	r2, .L65
	str	r0, [r2, #16]
	.loc 1 128 0
	mov	r0, r3
.LVL13:
	bx	lr
.L66:
	.align	2
.L65:
	.word	.LANCHOR0
	.cfi_endproc
.LFE131:
	.size	setD4, .-setD4
	.align	2
	.global	setD5
	.thumb
	.thumb_func
	.type	setD5, %function
setD5:
.LFB132:
	.loc 1 130 0
	.cfi_startproc
	@ args = 0, pretend = 0, frame = 0
	@ frame_needed = 0, uses_anonymous_args = 0
	@ link register save eliminated.
.LVL14:
	.loc 1 131 0
	ldr	r2, .L68
	str	r0, [r2, #4]
	.loc 1 132 0
	mov	r0, r3
.LVL15:
	bx	lr
.L69:
	.align	2
.L68:
	.word	.LANCHOR0
	.cfi_endproc
.LFE132:
	.size	setD5, .-setD5
	.align	2
	.global	setD6
	.thumb
	.thumb_func
	.type	setD6, %function
setD6:
.LFB133:
	.loc 1 135 0
	.cfi_startproc
	@ args = 0, pretend = 0, frame = 0
	@ frame_needed = 0, uses_anonymous_args = 0
	@ link register save eliminated.
.LVL16:
	.loc 1 136 0
	ldr	r2, .L71
	str	r0, [r2, #20]
	.loc 1 137 0
	mov	r0, r3
.LVL17:
	bx	lr
.L72:
	.align	2
.L71:
	.word	.LANCHOR0
	.cfi_endproc
.LFE133:
	.size	setD6, .-setD6
	.align	2
	.global	delay_ms
	.thumb
	.thumb_func
	.type	delay_ms, %function
delay_ms:
.LFB134:
	.loc 1 141 0
	.cfi_startproc
	@ args = 0, pretend = 0, frame = 0
	@ frame_needed = 0, uses_anonymous_args = 0
	@ link register save eliminated.
.LVL18:
	.loc 1 143 0
	ldr	r1, .L84
	.loc 1 144 0
	ldr	r2, .L84+4
	.loc 1 143 0
	ldr	r3, [r1, #64]
	.loc 1 141 0
	push	{r4, r5, r6}
	.cfi_def_cfa_offset 12
	.cfi_offset 4, -12
	.cfi_offset 5, -8
	.cfi_offset 6, -4
	.loc 1 143 0
	orr	r3, r3, #64
	.loc 1 144 0
	movs	r6, #83
	.loc 1 146 0
	mov	r5, #1000
	.loc 1 147 0
	movs	r4, #132
	.loc 1 143 0
	str	r3, [r1, #64]
	.loc 1 144 0
	strh	r6, [r2, #40]	@ movhi
	.loc 1 146 0
	str	r5, [r2, #44]
	.loc 1 147 0
	strh	r4, [r2]	@ movhi
	.loc 1 149 0
	ldrh	r3, [r2, #20]
	uxth	r3, r3
	orr	r3, r3, #1
	strh	r3, [r2, #20]	@ movhi
	.loc 1 150 0
	ldrh	r3, [r2]
	uxth	r3, r3
	orr	r3, r3, #1
	strh	r3, [r2]	@ movhi
	.loc 1 154 0
	mov	r1, r2
	.loc 1 151 0
	cbz	r0, .L77
.L75:
	.loc 1 154 0 discriminator 1
	ldrh	r3, [r2, #16]
	lsls	r3, r3, #31
	bpl	.L75
.LVL19:
	.loc 1 156 0
	ldrh	r3, [r1, #16]
	bic	r3, r3, #1
	lsls	r3, r3, #16
	lsrs	r3, r3, #16
	.loc 1 151 0
	subs	r0, r0, #1
.LVL20:
	.loc 1 156 0
	strh	r3, [r1, #16]	@ movhi
	.loc 1 151 0
	bne	.L75
.L77:
	.loc 1 159 0
	ldr	r1, .L84+4
	.loc 1 160 0
	ldr	r2, .L84
	.loc 1 159 0
	ldrh	r3, [r1]
	bic	r3, r3, #1
	lsls	r3, r3, #16
	lsrs	r3, r3, #16
	strh	r3, [r1]	@ movhi
	.loc 1 160 0
	ldr	r3, [r2, #64]
	bic	r3, r3, #64
	str	r3, [r2, #64]
	.loc 1 161 0
	pop	{r4, r5, r6}
	.cfi_restore 6
	.cfi_restore 5
	.cfi_restore 4
	.cfi_def_cfa_offset 0
	bx	lr
.L85:
	.align	2
.L84:
	.word	1073887232
	.word	1073747968
	.cfi_endproc
.LFE134:
	.size	delay_ms, .-delay_ms
	.align	2
	.global	delay_us
	.thumb
	.thumb_func
	.type	delay_us, %function
delay_us:
.LFB135:
	.loc 1 164 0
	.cfi_startproc
	@ args = 0, pretend = 0, frame = 0
	@ frame_needed = 0, uses_anonymous_args = 0
	@ link register save eliminated.
.LVL21:
	.loc 1 166 0
	ldr	r1, .L96
	.loc 1 167 0
	ldr	r2, .L96+4
	.loc 1 166 0
	ldr	r3, [r1, #64]
	.loc 1 164 0
	push	{r4, r5, r6}
	.cfi_def_cfa_offset 12
	.cfi_offset 4, -12
	.cfi_offset 5, -8
	.cfi_offset 6, -4
	.loc 1 166 0
	orr	r3, r3, #64
	.loc 1 167 0
	movs	r6, #0
	.loc 1 169 0
	movs	r5, #84
	.loc 1 170 0
	movs	r4, #132
	.loc 1 166 0
	str	r3, [r1, #64]
	.loc 1 167 0
	strh	r6, [r2, #40]	@ movhi
	.loc 1 169 0
	str	r5, [r2, #44]
	.loc 1 170 0
	strh	r4, [r2]	@ movhi
	.loc 1 173 0
	ldrh	r3, [r2, #20]
	uxth	r3, r3
	orr	r3, r3, #1
	strh	r3, [r2, #20]	@ movhi
	.loc 1 174 0
	ldrh	r3, [r2]
	uxth	r3, r3
	orr	r3, r3, #1
	strh	r3, [r2]	@ movhi
	.loc 1 177 0
	mov	r1, r2
	.loc 1 175 0
	cbz	r0, .L90
.L88:
	.loc 1 177 0 discriminator 1
	ldrh	r3, [r2, #16]
	lsls	r3, r3, #31
	bpl	.L88
.LVL22:
	.loc 1 179 0
	ldrh	r3, [r1, #16]
	bic	r3, r3, #1
	lsls	r3, r3, #16
	lsrs	r3, r3, #16
	.loc 1 175 0
	subs	r0, r0, #1
.LVL23:
	.loc 1 179 0
	strh	r3, [r1, #16]	@ movhi
	.loc 1 175 0
	bne	.L88
.L90:
	.loc 1 182 0
	ldr	r1, .L96+4
	.loc 1 183 0
	ldr	r2, .L96
	.loc 1 182 0
	ldrh	r3, [r1]
	bic	r3, r3, #1
	lsls	r3, r3, #16
	lsrs	r3, r3, #16
	strh	r3, [r1]	@ movhi
	.loc 1 183 0
	ldr	r3, [r2, #64]
	bic	r3, r3, #64
	str	r3, [r2, #64]
	.loc 1 184 0
	pop	{r4, r5, r6}
	.cfi_restore 6
	.cfi_restore 5
	.cfi_restore 4
	.cfi_def_cfa_offset 0
	bx	lr
.L97:
	.align	2
.L96:
	.word	1073887232
	.word	1073747968
	.cfi_endproc
.LFE135:
	.size	delay_us, .-delay_us
	.align	2
	.global	initSTOPWATCH
	.thumb
	.thumb_func
	.type	initSTOPWATCH, %function
initSTOPWATCH:
.LFB136:
	.loc 1 187 0
	.cfi_startproc
	@ args = 0, pretend = 0, frame = 0
	@ frame_needed = 0, uses_anonymous_args = 0
	@ link register save eliminated.
	push	{r4, r5, r6}
	.cfi_def_cfa_offset 12
	.cfi_offset 4, -12
	.cfi_offset 5, -8
	.cfi_offset 6, -4
	.loc 1 188 0
	ldr	r0, .L100
	.loc 1 189 0
	ldr	r3, .L100+4
	.loc 1 188 0
	ldr	r2, [r0, #64]
	.loc 1 189 0
	movs	r6, #83
	.loc 1 191 0
	mov	r5, #-1
	.loc 1 192 0
	movs	r4, #132
	.loc 1 194 0
	movs	r1, #0
	.loc 1 188 0
	orr	r2, r2, #8
	str	r2, [r0, #64]
	.loc 1 189 0
	strh	r6, [r3, #40]	@ movhi
	.loc 1 191 0
	str	r5, [r3, #44]
	.loc 1 192 0
	strh	r4, [r3]	@ movhi
	.loc 1 194 0
	strh	r1, [r3, #4]	@ movhi
	.loc 1 197 0
	pop	{r4, r5, r6}
	.cfi_restore 6
	.cfi_restore 5
	.cfi_restore 4
	.cfi_def_cfa_offset 0
	.loc 1 195 0
	str	r1, [r3, #36]
	.loc 1 197 0
	bx	lr
.L101:
	.align	2
.L100:
	.word	1073887232
	.word	1073744896
	.cfi_endproc
.LFE136:
	.size	initSTOPWATCH, .-initSTOPWATCH
	.align	2
	.global	startSTOPWATCH
	.thumb
	.thumb_func
	.type	startSTOPWATCH, %function
startSTOPWATCH:
.LFB137:
	.loc 1 200 0
	.cfi_startproc
	@ args = 0, pretend = 0, frame = 0
	@ frame_needed = 0, uses_anonymous_args = 0
	@ link register save eliminated.
	.loc 1 201 0
	ldr	r2, .L103
	ldrh	r3, [r2, #20]
	uxth	r3, r3
	orr	r3, r3, #1
	strh	r3, [r2, #20]	@ movhi
	.loc 1 202 0
	ldrh	r3, [r2]
	uxth	r3, r3
	orr	r3, r3, #1
	strh	r3, [r2]	@ movhi
	bx	lr
.L104:
	.align	2
.L103:
	.word	1073744896
	.cfi_endproc
.LFE137:
	.size	startSTOPWATCH, .-startSTOPWATCH
	.align	2
	.global	stopSTOPWATCH
	.thumb
	.thumb_func
	.type	stopSTOPWATCH, %function
stopSTOPWATCH:
.LFB138:
	.loc 1 206 0
	.cfi_startproc
	@ args = 0, pretend = 0, frame = 0
	@ frame_needed = 0, uses_anonymous_args = 0
	@ link register save eliminated.
	.loc 1 209 0
	ldr	r2, .L106
	ldr	r0, [r2, #36]
.LVL24:
	.loc 1 210 0
	ldrh	r3, [r2]
	bic	r3, r3, #1
	lsls	r3, r3, #16
	lsrs	r3, r3, #16
	strh	r3, [r2]	@ movhi
	.loc 1 212 0
	bx	lr
.L107:
	.align	2
.L106:
	.word	1073744896
	.cfi_endproc
.LFE138:
	.size	stopSTOPWATCH, .-stopSTOPWATCH
	.align	2
	.global	disableSYSTIMER12
	.thumb
	.thumb_func
	.type	disableSYSTIMER12, %function
disableSYSTIMER12:
.LFB139:
	.loc 1 215 0
	.cfi_startproc
	@ args = 0, pretend = 0, frame = 0
	@ frame_needed = 0, uses_anonymous_args = 0
	@ link register save eliminated.
	.loc 1 216 0
	ldr	r2, .L109
.LBB54:
.LBB55:
	.loc 1 112 0
	ldr	r1, .L109+4
.LBE55:
.LBE54:
	.loc 1 216 0
	ldr	r3, [r2, #64]
.LBB58:
.LBB56:
	.loc 1 112 0
	movs	r0, #0
.LBE56:
.LBE58:
	.loc 1 216 0
	bic	r3, r3, #64
	str	r3, [r2, #64]
.LVL25:
.LBB59:
.LBB57:
	.loc 1 112 0
	str	r0, [r1]
	bx	lr
.L110:
	.align	2
.L109:
	.word	1073887232
	.word	.LANCHOR0
.LBE57:
.LBE59:
	.cfi_endproc
.LFE139:
	.size	disableSYSTIMER12, .-disableSYSTIMER12
	.align	2
	.global	disableSYSTIMER3
	.thumb
	.thumb_func
	.type	disableSYSTIMER3, %function
disableSYSTIMER3:
.LFB140:
	.loc 1 221 0
	.cfi_startproc
	@ args = 0, pretend = 0, frame = 0
	@ frame_needed = 0, uses_anonymous_args = 0
	@ link register save eliminated.
	.loc 1 222 0
	ldr	r2, .L112
.LBB60:
.LBB61:
	.loc 1 117 0
	ldr	r1, .L112+4
.LBE61:
.LBE60:
	.loc 1 222 0
	ldr	r3, [r2, #64]
.LBB64:
.LBB62:
	.loc 1 117 0
	movs	r0, #0
.LBE62:
.LBE64:
	.loc 1 222 0
	bic	r3, r3, #2
	str	r3, [r2, #64]
.LVL26:
.LBB65:
.LBB63:
	.loc 1 117 0
	str	r0, [r1, #8]
	bx	lr
.L113:
	.align	2
.L112:
	.word	1073887232
	.word	.LANCHOR0
.LBE63:
.LBE65:
	.cfi_endproc
.LFE140:
	.size	disableSYSTIMER3, .-disableSYSTIMER3
	.align	2
	.global	disableSYSTIMER2
	.thumb
	.thumb_func
	.type	disableSYSTIMER2, %function
disableSYSTIMER2:
.LFB141:
	.loc 1 227 0
	.cfi_startproc
	@ args = 0, pretend = 0, frame = 0
	@ frame_needed = 0, uses_anonymous_args = 0
	@ link register save eliminated.
	.loc 1 228 0
	ldr	r2, .L115
.LBB66:
.LBB67:
	.loc 1 122 0
	ldr	r1, .L115+4
.LBE67:
.LBE66:
	.loc 1 228 0
	ldr	r3, [r2, #64]
.LBB70:
.LBB68:
	.loc 1 122 0
	movs	r0, #0
.LBE68:
.LBE70:
	.loc 1 228 0
	bic	r3, r3, #1
	str	r3, [r2, #64]
.LVL27:
.LBB71:
.LBB69:
	.loc 1 122 0
	str	r0, [r1, #12]
	bx	lr
.L116:
	.align	2
.L115:
	.word	1073887232
	.word	.LANCHOR0
.LBE69:
.LBE71:
	.cfi_endproc
.LFE141:
	.size	disableSYSTIMER2, .-disableSYSTIMER2
	.align	2
	.global	disableSYSTIMER5
	.thumb
	.thumb_func
	.type	disableSYSTIMER5, %function
disableSYSTIMER5:
.LFB142:
	.loc 1 233 0
	.cfi_startproc
	@ args = 0, pretend = 0, frame = 0
	@ frame_needed = 0, uses_anonymous_args = 0
	@ link register save eliminated.
	.loc 1 234 0
	ldr	r2, .L118
.LBB72:
.LBB73:
	.loc 1 127 0
	ldr	r1, .L118+4
.LBE73:
.LBE72:
	.loc 1 234 0
	ldr	r3, [r2, #64]
.LBB76:
.LBB74:
	.loc 1 127 0
	movs	r0, #0
.LBE74:
.LBE76:
	.loc 1 234 0
	bic	r3, r3, #8
	str	r3, [r2, #64]
.LVL28:
.LBB77:
.LBB75:
	.loc 1 127 0
	str	r0, [r1, #16]
	bx	lr
.L119:
	.align	2
.L118:
	.word	1073887232
	.word	.LANCHOR0
.LBE75:
.LBE77:
	.cfi_endproc
.LFE142:
	.size	disableSYSTIMER5, .-disableSYSTIMER5
	.align	2
	.global	initSYSTIMER
	.thumb
	.thumb_func
	.type	initSYSTIMER, %function
initSYSTIMER:
.LFB143:
	.loc 1 238 0
	.cfi_startproc
	@ args = 0, pretend = 0, frame = 0
	@ frame_needed = 0, uses_anonymous_args = 0
	.loc 1 239 0
	ldr	r1, .L122
.LBB78:
.LBB79:
	.file 2 "../../../STM32F407/Libraries/CMSIS/Include/core_cm4.h"
	.loc 2 1162 0
	ldr	r2, .L122+4
.LBE79:
.LBE78:
	.loc 1 239 0
	ldr	r3, [r1, #64]
	.loc 1 365 0
	ldr	r0, .L122+8
	.loc 1 238 0
	push	{r4, r5, r6, r7, r8, r9, r10, fp, lr}
	.cfi_def_cfa_offset 36
	.cfi_offset 4, -36
	.cfi_offset 5, -32
	.cfi_offset 6, -28
	.cfi_offset 7, -24
	.cfi_offset 8, -20
	.cfi_offset 9, -16
	.cfi_offset 10, -12
	.cfi_offset 11, -8
	.cfi_offset 14, -4
	.loc 1 239 0
	orr	r3, r3, #64
	.loc 1 241 0
	ldr	lr, .L122+28
	.loc 1 239 0
	str	r3, [r1, #64]
	.loc 1 241 0
	ldrh	ip, [lr]
	.loc 1 276 0
	ldr	r7, .L122+12
	.loc 1 312 0
	ldr	r6, .L122+16
	.loc 1 330 0
	ldr	r5, .L122+20
	.loc 1 348 0
	ldr	r4, .L122+24
	.loc 1 241 0
	uxth	ip, ip
	.loc 1 247 0
	movs	r3, #0
	.loc 1 242 0
	mov	r10, #83
	.loc 1 244 0
	mov	r9, #1000
	.loc 1 245 0
	mov	r8, #132
	.loc 1 241 0
	orr	ip, ip, #1
	strh	ip, [lr]	@ movhi
	.loc 1 242 0
	strh	r10, [lr, #40]	@ movhi
	.loc 1 244 0
	str	r9, [lr, #44]
	.loc 1 245 0
	strh	r8, [lr]	@ movhi
	.loc 1 247 0
	strh	r3, [lr, #4]	@ movhi
	.loc 1 248 0
	str	r3, [lr, #36]
	.loc 1 249 0
	ldrh	fp, [lr, #20]
	uxth	fp, fp
	orr	fp, fp, #1
	.loc 1 250 0
	mov	ip, #1
	.loc 1 249 0
	strh	fp, [lr, #20]	@ movhi
.LBB81:
.LBB82:
	.loc 2 1075 0
	mov	fp, #2048
.LBE82:
.LBE81:
	.loc 1 250 0
	strh	ip, [lr, #12]	@ movhi
.LVL29:
.LBB84:
.LBB80:
	.loc 2 1162 0
	strb	r3, [r2, #811]
.LVL30:
.LBE80:
.LBE84:
.LBB85:
.LBB83:
	.loc 2 1075 0
	str	fp, [r2, #4]
.LBE83:
.LBE85:
	.loc 1 254 0
	ldrh	fp, [lr]
	uxth	fp, fp
	orr	fp, fp, ip
	strh	fp, [lr]	@ movhi
	.loc 1 274 0
	ldr	lr, [r1, #64]
	orr	lr, lr, #2
	str	lr, [r1, #64]
	.loc 1 276 0
	ldrh	lr, [r7]
	uxth	lr, lr
	orr	lr, lr, ip
	strh	lr, [r7]	@ movhi
	.loc 1 277 0
	strh	r10, [r7, #40]	@ movhi
	.loc 1 279 0
	str	r9, [r7, #44]
	.loc 1 280 0
	strh	r8, [r7]	@ movhi
	.loc 1 282 0
	strh	r3, [r7, #4]	@ movhi
	.loc 1 283 0
	str	r3, [r7, #36]
	.loc 1 284 0
	ldrh	lr, [r7, #20]
	uxth	lr, lr
	orr	lr, lr, ip
.LBB86:
.LBB87:
	.loc 2 1075 0
	mov	fp, #536870912
.LBE87:
.LBE86:
	.loc 1 284 0
	strh	lr, [r7, #20]	@ movhi
	.loc 1 285 0
	strh	ip, [r7, #12]	@ movhi
.LVL31:
.LBB89:
.LBB90:
	.loc 2 1162 0
	strb	r3, [r2, #797]
.LVL32:
.LBE90:
.LBE89:
.LBB91:
.LBB88:
	.loc 2 1075 0
	str	fp, [r2]
.LBE88:
.LBE91:
	.loc 1 289 0
	ldrh	lr, [r7]
	uxth	lr, lr
	orr	lr, lr, ip
	strh	lr, [r7]	@ movhi
	.loc 1 292 0
	ldr	lr, [r1, #64]
	.loc 1 294 0
	mov	r7, #1073741824
	.loc 1 292 0
	orr	lr, lr, ip
	str	lr, [r1, #64]
	.loc 1 294 0
	ldrh	lr, [r7]
	uxth	lr, lr
	orr	lr, lr, ip
	strh	lr, [r7]	@ movhi
	.loc 1 295 0
	strh	r10, [r7, #40]	@ movhi
	.loc 1 297 0
	str	r9, [r7, #44]
	.loc 1 298 0
	strh	r8, [r7]	@ movhi
	.loc 1 300 0
	strh	r3, [r7, #4]	@ movhi
	.loc 1 301 0
	str	r3, [r7, #36]
	.loc 1 302 0
	ldrh	lr, [r7, #20]
	uxth	lr, lr
	orr	lr, lr, ip
.LBB92:
.LBB93:
	.loc 2 1075 0
	mov	fp, #268435456
.LBE93:
.LBE92:
	.loc 1 302 0
	strh	lr, [r7, #20]	@ movhi
	.loc 1 303 0
	strh	ip, [r7, #12]	@ movhi
.LVL33:
.LBB95:
.LBB96:
	.loc 2 1162 0
	strb	r3, [r2, #796]
.LVL34:
.LBE96:
.LBE95:
.LBB97:
.LBB94:
	.loc 2 1075 0
	str	fp, [r2]
.LBE94:
.LBE97:
	.loc 1 307 0
	ldrh	lr, [r7]
	uxth	lr, lr
	orr	lr, lr, ip
	strh	lr, [r7]	@ movhi
	.loc 1 310 0
	ldr	r7, [r1, #64]
	orr	r7, r7, #8
	str	r7, [r1, #64]
	.loc 1 312 0
	ldrh	r7, [r6]
	uxth	r7, r7
	orr	r7, r7, ip
	strh	r7, [r6]	@ movhi
	.loc 1 313 0
	strh	r10, [r6, #40]	@ movhi
	.loc 1 315 0
	str	r9, [r6, #44]
	.loc 1 316 0
	strh	r8, [r6]	@ movhi
	.loc 1 318 0
	strh	r3, [r6, #4]	@ movhi
	.loc 1 319 0
	str	r3, [r6, #36]
	.loc 1 320 0
	ldrh	r7, [r6, #20]
	uxth	r7, r7
	orr	r7, r7, ip
.LBB98:
.LBB99:
	.loc 2 1075 0
	mov	lr, #262144
.LBE99:
.LBE98:
	.loc 1 320 0
	strh	r7, [r6, #20]	@ movhi
	.loc 1 321 0
	strh	ip, [r6, #12]	@ movhi
.LVL35:
.LBB101:
.LBB102:
	.loc 2 1162 0
	strb	r3, [r2, #818]
.LVL36:
.LBE102:
.LBE101:
.LBB103:
.LBB100:
	.loc 2 1075 0
	str	lr, [r2, #4]
.LBE100:
.LBE103:
	.loc 1 325 0
	ldrh	r7, [r6]
	uxth	r7, r7
	orr	r7, r7, ip
	strh	r7, [r6]	@ movhi
	.loc 1 328 0
	ldr	r6, [r1, #64]
	orr	r6, r6, #128
	str	r6, [r1, #64]
	.loc 1 330 0
	ldrh	r6, [r5]
	uxth	r6, r6
	orr	r6, r6, ip
	strh	r6, [r5]	@ movhi
	.loc 1 331 0
	strh	r10, [r5, #40]	@ movhi
	.loc 1 333 0
	str	r9, [r5, #44]
	.loc 1 334 0
	strh	r8, [r5]	@ movhi
	.loc 1 336 0
	strh	r3, [r5, #4]	@ movhi
	.loc 1 337 0
	str	r3, [r5, #36]
	.loc 1 338 0
	ldrh	r6, [r5, #20]
	uxth	r6, r6
	orr	r6, r6, ip
.LBB104:
.LBB105:
	.loc 2 1075 0
	mov	r7, #4096
.LBE105:
.LBE104:
	.loc 1 338 0
	strh	r6, [r5, #20]	@ movhi
	.loc 1 339 0
	strh	ip, [r5, #12]	@ movhi
.LVL37:
.LBB107:
.LBB108:
	.loc 2 1162 0
	strb	r3, [r2, #812]
.LVL38:
.LBE108:
.LBE107:
.LBB109:
.LBB106:
	.loc 2 1075 0
	str	r7, [r2, #4]
.LBE106:
.LBE109:
	.loc 1 343 0
	ldrh	r6, [r5]
	uxth	r6, r6
	orr	r6, r6, ip
	strh	r6, [r5]	@ movhi
	.loc 1 346 0
	ldr	r5, [r1, #68]
	orr	r5, r5, #131072
	str	r5, [r1, #68]
	.loc 1 348 0
	ldrh	r5, [r4]
	uxth	r5, r5
	orr	r5, r5, ip
	strh	r5, [r4]	@ movhi
	.loc 1 349 0
	strh	r10, [r4, #40]	@ movhi
	.loc 1 351 0
	str	r9, [r4, #44]
	.loc 1 352 0
	strh	r8, [r4]	@ movhi
	.loc 1 354 0
	strh	r3, [r4, #4]	@ movhi
	.loc 1 355 0
	str	r3, [r4, #36]
	.loc 1 356 0
	ldrh	r5, [r4, #20]
	uxth	r5, r5
	orr	r5, r5, ip
.LBB110:
.LBB111:
	.loc 2 1075 0
	mov	r6, #33554432
.LBE111:
.LBE110:
	.loc 1 356 0
	strh	r5, [r4, #20]	@ movhi
	.loc 1 357 0
	strh	ip, [r4, #12]	@ movhi
.LVL39:
.LBB113:
.LBB114:
	.loc 2 1162 0
	strb	r3, [r2, #793]
.LVL40:
.LBE114:
.LBE113:
.LBB115:
.LBB112:
	.loc 2 1075 0
	str	r6, [r2]
.LBE112:
.LBE115:
	.loc 1 361 0
	ldrh	r5, [r4]
	uxth	r5, r5
	orr	r5, r5, ip
	strh	r5, [r4]	@ movhi
	.loc 1 363 0
	ldr	r4, [r1, #64]
	orr	r4, r4, #256
	str	r4, [r1, #64]
	.loc 1 365 0
	ldrh	r1, [r0]
	uxth	r1, r1
	orr	r1, r1, ip
	strh	r1, [r0]	@ movhi
	.loc 1 366 0
	strh	r10, [r0, #40]	@ movhi
	.loc 1 368 0
	str	r9, [r0, #44]
	.loc 1 369 0
	strh	r8, [r0]	@ movhi
	.loc 1 371 0
	strh	r3, [r0, #4]	@ movhi
	.loc 1 372 0
	str	r3, [r0, #36]
	.loc 1 373 0
	ldrh	r1, [r0, #20]
	uxth	r1, r1
	orr	r1, r1, ip
.LBB116:
.LBB117:
	.loc 2 1075 0
	mov	r4, #8192
.LBE117:
.LBE116:
	.loc 1 373 0
	strh	r1, [r0, #20]	@ movhi
	.loc 1 374 0
	strh	ip, [r0, #12]	@ movhi
.LVL41:
.LBB119:
.LBB120:
	.loc 2 1162 0
	strb	r3, [r2, #813]
.LVL42:
.LBE120:
.LBE119:
.LBB121:
.LBB118:
	.loc 2 1075 0
	str	r4, [r2, #4]
.LBE118:
.LBE121:
	.loc 1 378 0
	ldrh	r3, [r0]
	uxth	r3, r3
	orr	r3, r3, ip
	strh	r3, [r0]	@ movhi
	pop	{r4, r5, r6, r7, r8, r9, r10, fp, pc}
.L123:
	.align	2
.L122:
	.word	1073887232
	.word	-536813312
	.word	1073750016
	.word	1073742848
	.word	1073744896
	.word	1073748992
	.word	1073824768
	.word	1073747968
	.cfi_endproc
.LFE143:
	.size	initSYSTIMER, .-initSYSTIMER
	.align	2
	.global	getSYSTIMER
	.thumb
	.thumb_func
	.type	getSYSTIMER, %function
getSYSTIMER:
.LFB144:
	.loc 1 383 0
	.cfi_startproc
	@ args = 0, pretend = 0, frame = 0
	@ frame_needed = 0, uses_anonymous_args = 0
	@ link register save eliminated.
	.loc 1 384 0
	mov	r3, #1073741824
	ldr	r0, [r3, #36]
.LVL43:
	.loc 1 386 0
	bx	lr
	.cfi_endproc
.LFE144:
	.size	getSYSTIMER, .-getSYSTIMER
	.align	2
	.global	chk4TimeoutSYSTIMER
	.thumb
	.thumb_func
	.type	chk4TimeoutSYSTIMER, %function
chk4TimeoutSYSTIMER:
.LFB145:
	.loc 1 389 0
	.cfi_startproc
	@ args = 0, pretend = 0, frame = 0
	@ frame_needed = 0, uses_anonymous_args = 0
	@ link register save eliminated.
.LVL44:
	.loc 1 390 0
	mov	r3, #1073741824
	ldr	r3, [r3, #36]
.LVL45:
	.loc 1 391 0
	cmp	r3, r0
	bcc	.L126
	.loc 1 393 0
	add	r0, r0, r1
.LVL46:
	.loc 1 394 0
	cmp	r3, r0
	ite	cs
	movcs	r0, #0
	movcc	r0, #1
	bx	lr
.LVL47:
.L126:
.LBB122:
	.loc 1 400 0
	mvns	r0, r0
.LVL48:
	.loc 1 401 0
	add	r0, r0, r3
.LVL49:
.LBE122:
	.loc 1 394 0
	cmp	r1, r0
	ite	ls
	movls	r0, #0
	movhi	r0, #1
	.loc 1 406 0
	bx	lr
	.cfi_endproc
.LFE145:
	.size	chk4TimeoutSYSTIMER, .-chk4TimeoutSYSTIMER
	.align	2
	.global	initSYSTIM
	.thumb
	.thumb_func
	.type	initSYSTIM, %function
initSYSTIM:
.LFB146:
	.loc 1 409 0
	.cfi_startproc
	@ args = 0, pretend = 0, frame = 0
	@ frame_needed = 0, uses_anonymous_args = 0
	@ link register save eliminated.
	push	{r4, r5, r6, r7}
	.cfi_def_cfa_offset 16
	.cfi_offset 4, -16
	.cfi_offset 5, -12
	.cfi_offset 6, -8
	.cfi_offset 7, -4
	.loc 1 410 0
	ldr	r4, .L130
	.loc 1 411 0
	ldr	r3, .L130+4
	.loc 1 410 0
	ldr	r2, [r4, #64]
.LBB123:
.LBB124:
	.loc 2 1162 0
	ldr	r0, .L130+8
.LBE124:
.LBE123:
	.loc 1 416 0
	movs	r1, #0
	.loc 1 410 0
	orr	r2, r2, #32
	.loc 1 411 0
	movs	r7, #83
	.loc 1 413 0
	mov	r6, #1000
	.loc 1 414 0
	movs	r5, #132
	.loc 1 410 0
	str	r2, [r4, #64]
	.loc 1 411 0
	strh	r7, [r3, #40]	@ movhi
	.loc 1 413 0
	str	r6, [r3, #44]
	.loc 1 414 0
	strh	r5, [r3]	@ movhi
	.loc 1 416 0
	strh	r1, [r3, #4]	@ movhi
	.loc 1 417 0
	str	r1, [r3, #36]
	.loc 1 418 0
	ldrh	r2, [r3, #20]
	uxth	r2, r2
	.loc 1 419 0
	movs	r5, #1
	.loc 1 418 0
	orr	r2, r2, #1
.LBB126:
.LBB127:
	.loc 2 1075 0
	mov	r4, #8388608
.LBE127:
.LBE126:
	.loc 1 418 0
	strh	r2, [r3, #20]	@ movhi
	.loc 1 419 0
	strh	r5, [r3, #12]	@ movhi
.LVL50:
.LBB129:
.LBB125:
	.loc 2 1162 0
	strb	r1, [r0, #823]
.LVL51:
.LBE125:
.LBE129:
.LBB130:
.LBB128:
	.loc 2 1075 0
	str	r4, [r0, #4]
.LBE128:
.LBE130:
	.loc 1 423 0
	ldrh	r2, [r3]
	uxth	r2, r2
	orrs	r2, r2, r5
	strh	r2, [r3]	@ movhi
	.loc 1 424 0
	pop	{r4, r5, r6, r7}
	.cfi_restore 7
	.cfi_restore 6
	.cfi_restore 5
	.cfi_restore 4
	.cfi_def_cfa_offset 0
	bx	lr
.L131:
	.align	2
.L130:
	.word	1073887232
	.word	1073746944
	.word	-536813312
	.cfi_endproc
.LFE146:
	.size	initSYSTIM, .-initSYSTIM
	.align	2
	.global	TIM8_UP_TIM13_IRQHandler
	.thumb
	.thumb_func
	.type	TIM8_UP_TIM13_IRQHandler, %function
TIM8_UP_TIM13_IRQHandler:
.LFB147:
	.loc 1 427 0
	.cfi_startproc
	@ args = 0, pretend = 0, frame = 0
	@ frame_needed = 0, uses_anonymous_args = 0
	@ link register save eliminated.
	.loc 1 428 0
	ldr	r3, .L140
	ldrh	r2, [r3, #16]
	lsls	r2, r2, #31
	bpl	.L132
.LBB131:
.LBB132:
	.loc 1 27 0
	ldr	r2, .L140+4
	ldr	r1, [r2, #4]
.LBE132:
.LBE131:
	.loc 1 428 0
	cbz	r1, .L132
	.loc 1 430 0
	ldr	r1, [r2, #24]
	.loc 1 431 0
	movs	r0, #0
	.loc 1 430 0
	adds	r1, r1, #1
	str	r1, [r2, #24]
	.loc 1 431 0
	strh	r0, [r3, #16]	@ movhi
.L132:
	bx	lr
.L141:
	.align	2
.L140:
	.word	1073748992
	.word	.LANCHOR0
	.cfi_endproc
.LFE147:
	.size	TIM8_UP_TIM13_IRQHandler, .-TIM8_UP_TIM13_IRQHandler
	.align	2
	.global	TIM8_TRG_COM_TIM14_IRQHandler
	.thumb
	.thumb_func
	.type	TIM8_TRG_COM_TIM14_IRQHandler, %function
TIM8_TRG_COM_TIM14_IRQHandler:
.LFB148:
	.loc 1 436 0
	.cfi_startproc
	@ args = 0, pretend = 0, frame = 0
	@ frame_needed = 0, uses_anonymous_args = 0
	@ link register save eliminated.
	.loc 1 437 0
	ldr	r3, .L150
	ldrh	r2, [r3, #16]
	lsls	r2, r2, #31
	bpl	.L142
.LBB133:
.LBB134:
	.loc 1 47 0
	ldr	r2, .L150+4
	ldr	r1, [r2, #20]
.LBE134:
.LBE133:
	.loc 1 437 0
	cbz	r1, .L142
	.loc 1 439 0
	ldr	r1, [r2, #28]
	.loc 1 440 0
	movs	r0, #0
	.loc 1 439 0
	adds	r1, r1, #1
	str	r1, [r2, #28]
	.loc 1 440 0
	strh	r0, [r3, #16]	@ movhi
.L142:
	bx	lr
.L151:
	.align	2
.L150:
	.word	1073750016
	.word	.LANCHOR0
	.cfi_endproc
.LFE148:
	.size	TIM8_TRG_COM_TIM14_IRQHandler, .-TIM8_TRG_COM_TIM14_IRQHandler
	.align	2
	.global	TIM8_BRK_TIM12_IRQHandler
	.thumb
	.thumb_func
	.type	TIM8_BRK_TIM12_IRQHandler, %function
TIM8_BRK_TIM12_IRQHandler:
.LFB149:
	.loc 1 445 0
	.cfi_startproc
	@ args = 0, pretend = 0, frame = 0
	@ frame_needed = 0, uses_anonymous_args = 0
	@ link register save eliminated.
	.loc 1 446 0
	ldr	r3, .L160
	ldrh	r2, [r3, #16]
	lsls	r2, r2, #31
	bpl	.L152
.LBB135:
.LBB136:
	.loc 1 22 0
	ldr	r2, .L160+4
	ldr	r1, [r2]
.LBE136:
.LBE135:
	.loc 1 446 0
	cbz	r1, .L152
	.loc 1 448 0
	ldr	r1, [r2, #32]
	.loc 1 449 0
	movs	r0, #0
	.loc 1 448 0
	adds	r1, r1, #1
	str	r1, [r2, #32]
	.loc 1 449 0
	strh	r0, [r3, #16]	@ movhi
.L152:
	bx	lr
.L161:
	.align	2
.L160:
	.word	1073747968
	.word	.LANCHOR0
	.cfi_endproc
.LFE149:
	.size	TIM8_BRK_TIM12_IRQHandler, .-TIM8_BRK_TIM12_IRQHandler
	.align	2
	.global	TIM3_IRQHandler
	.thumb
	.thumb_func
	.type	TIM3_IRQHandler, %function
TIM3_IRQHandler:
.LFB150:
	.loc 1 454 0
	.cfi_startproc
	@ args = 0, pretend = 0, frame = 0
	@ frame_needed = 0, uses_anonymous_args = 0
	@ link register save eliminated.
	.loc 1 455 0
	ldr	r3, .L170
	ldrh	r2, [r3, #16]
	lsls	r2, r2, #31
	bpl	.L162
.LBB137:
.LBB138:
	.loc 1 32 0
	ldr	r2, .L170+4
	ldr	r1, [r2, #8]
.LBE138:
.LBE137:
	.loc 1 455 0
	cbz	r1, .L162
	.loc 1 457 0
	ldr	r1, [r2, #36]
	.loc 1 458 0
	movs	r0, #0
	.loc 1 457 0
	adds	r1, r1, #1
	str	r1, [r2, #36]
	.loc 1 458 0
	strh	r0, [r3, #16]	@ movhi
.L162:
	bx	lr
.L171:
	.align	2
.L170:
	.word	1073742848
	.word	.LANCHOR0
	.cfi_endproc
.LFE150:
	.size	TIM3_IRQHandler, .-TIM3_IRQHandler
	.align	2
	.global	TIM2_IRQHandler
	.thumb
	.thumb_func
	.type	TIM2_IRQHandler, %function
TIM2_IRQHandler:
.LFB151:
	.loc 1 463 0
	.cfi_startproc
	@ args = 0, pretend = 0, frame = 0
	@ frame_needed = 0, uses_anonymous_args = 0
	@ link register save eliminated.
	.loc 1 464 0
	mov	r3, #1073741824
	ldrh	r2, [r3, #16]
	lsls	r2, r2, #31
	bpl	.L172
.LBB139:
.LBB140:
	.loc 1 37 0
	ldr	r2, .L180
	ldr	r1, [r2, #12]
.LBE140:
.LBE139:
	.loc 1 464 0
	cbz	r1, .L172
	.loc 1 466 0
	ldr	r1, [r2, #40]
	.loc 1 467 0
	movs	r0, #0
	.loc 1 466 0
	adds	r1, r1, #1
	str	r1, [r2, #40]
	.loc 1 467 0
	strh	r0, [r3, #16]	@ movhi
.L172:
	bx	lr
.L181:
	.align	2
.L180:
	.word	.LANCHOR0
	.cfi_endproc
.LFE151:
	.size	TIM2_IRQHandler, .-TIM2_IRQHandler
	.align	2
	.global	TIM5_IRQHandler
	.thumb
	.thumb_func
	.type	TIM5_IRQHandler, %function
TIM5_IRQHandler:
.LFB152:
	.loc 1 472 0
	.cfi_startproc
	@ args = 0, pretend = 0, frame = 0
	@ frame_needed = 0, uses_anonymous_args = 0
	@ link register save eliminated.
	.loc 1 473 0
	ldr	r3, .L190
	ldrh	r2, [r3, #16]
	lsls	r2, r2, #31
	bpl	.L182
.LBB141:
.LBB142:
	.loc 1 42 0
	ldr	r2, .L190+4
	ldr	r1, [r2, #16]
.LBE142:
.LBE141:
	.loc 1 473 0
	cbz	r1, .L182
	.loc 1 475 0
	ldr	r1, [r2, #44]
	.loc 1 476 0
	movs	r0, #0
	.loc 1 475 0
	adds	r1, r1, #1
	str	r1, [r2, #44]
	.loc 1 476 0
	strh	r0, [r3, #16]	@ movhi
.L182:
	bx	lr
.L191:
	.align	2
.L190:
	.word	1073744896
	.word	.LANCHOR0
	.cfi_endproc
.LFE152:
	.size	TIM5_IRQHandler, .-TIM5_IRQHandler
	.align	2
	.global	TIM4_IRQHandler
	.thumb
	.thumb_func
	.type	TIM4_IRQHandler, %function
TIM4_IRQHandler:
.LFB153:
	.loc 1 481 0
	.cfi_startproc
	@ args = 0, pretend = 0, frame = 0
	@ frame_needed = 0, uses_anonymous_args = 0
	@ link register save eliminated.
	.loc 1 482 0
	ldr	r3, .L197
	ldrh	r2, [r3, #16]
	lsls	r2, r2, #31
	bpl	.L192
	.loc 1 484 0
	ldr	r1, .L197+4
	ldr	r2, [r1, #48]
	.loc 1 485 0
	movs	r0, #0
	.loc 1 484 0
	adds	r2, r2, #1
	str	r2, [r1, #48]
	.loc 1 485 0
	strh	r0, [r3, #16]	@ movhi
.L192:
	bx	lr
.L198:
	.align	2
.L197:
	.word	1073743872
	.word	.LANCHOR0
	.cfi_endproc
.LFE153:
	.size	TIM4_IRQHandler, .-TIM4_IRQHandler
	.align	2
	.global	getSYSTIM12
	.thumb
	.thumb_func
	.type	getSYSTIM12, %function
getSYSTIM12:
.LFB154:
	.loc 1 491 0
	.cfi_startproc
	@ args = 0, pretend = 0, frame = 0
	@ frame_needed = 0, uses_anonymous_args = 0
	@ link register save eliminated.
	.loc 1 492 0
	ldr	r3, .L200
	ldr	r0, [r3, #32]
	.loc 1 493 0
	bx	lr
.L201:
	.align	2
.L200:
	.word	.LANCHOR0
	.cfi_endproc
.LFE154:
	.size	getSYSTIM12, .-getSYSTIM12
	.align	2
	.global	getSYSTIM13
	.thumb
	.thumb_func
	.type	getSYSTIM13, %function
getSYSTIM13:
.LFB155:
	.loc 1 497 0
	.cfi_startproc
	@ args = 0, pretend = 0, frame = 0
	@ frame_needed = 0, uses_anonymous_args = 0
	@ link register save eliminated.
	.loc 1 498 0
	ldr	r3, .L203
	ldr	r0, [r3, #24]
	.loc 1 499 0
	bx	lr
.L204:
	.align	2
.L203:
	.word	.LANCHOR0
	.cfi_endproc
.LFE155:
	.size	getSYSTIM13, .-getSYSTIM13
	.align	2
	.global	getSYSTIM3
	.thumb
	.thumb_func
	.type	getSYSTIM3, %function
getSYSTIM3:
.LFB156:
	.loc 1 502 0
	.cfi_startproc
	@ args = 0, pretend = 0, frame = 0
	@ frame_needed = 0, uses_anonymous_args = 0
	@ link register save eliminated.
	.loc 1 503 0
	ldr	r3, .L206
	ldr	r0, [r3, #36]
	.loc 1 504 0
	bx	lr
.L207:
	.align	2
.L206:
	.word	.LANCHOR0
	.cfi_endproc
.LFE156:
	.size	getSYSTIM3, .-getSYSTIM3
	.align	2
	.global	getSYSTIM14
	.thumb
	.thumb_func
	.type	getSYSTIM14, %function
getSYSTIM14:
.LFB157:
	.loc 1 507 0
	.cfi_startproc
	@ args = 0, pretend = 0, frame = 0
	@ frame_needed = 0, uses_anonymous_args = 0
	@ link register save eliminated.
	.loc 1 508 0
	ldr	r3, .L209
	ldr	r0, [r3, #28]
	.loc 1 509 0
	bx	lr
.L210:
	.align	2
.L209:
	.word	.LANCHOR0
	.cfi_endproc
.LFE157:
	.size	getSYSTIM14, .-getSYSTIM14
	.align	2
	.global	getSYSTIM2
	.thumb
	.thumb_func
	.type	getSYSTIM2, %function
getSYSTIM2:
.LFB158:
	.loc 1 512 0
	.cfi_startproc
	@ args = 0, pretend = 0, frame = 0
	@ frame_needed = 0, uses_anonymous_args = 0
	@ link register save eliminated.
	.loc 1 513 0
	ldr	r3, .L212
	ldr	r0, [r3, #40]
	.loc 1 514 0
	bx	lr
.L213:
	.align	2
.L212:
	.word	.LANCHOR0
	.cfi_endproc
.LFE158:
	.size	getSYSTIM2, .-getSYSTIM2
	.align	2
	.global	getSYSTIM5
	.thumb
	.thumb_func
	.type	getSYSTIM5, %function
getSYSTIM5:
.LFB159:
	.loc 1 517 0
	.cfi_startproc
	@ args = 0, pretend = 0, frame = 0
	@ frame_needed = 0, uses_anonymous_args = 0
	@ link register save eliminated.
	.loc 1 518 0
	ldr	r3, .L215
	ldr	r0, [r3, #44]
	.loc 1 519 0
	bx	lr
.L216:
	.align	2
.L215:
	.word	.LANCHOR0
	.cfi_endproc
.LFE159:
	.size	getSYSTIM5, .-getSYSTIM5
	.align	2
	.global	getSYSTIM4
	.thumb
	.thumb_func
	.type	getSYSTIM4, %function
getSYSTIM4:
.LFB160:
	.loc 1 522 0
	.cfi_startproc
	@ args = 0, pretend = 0, frame = 0
	@ frame_needed = 0, uses_anonymous_args = 0
	@ link register save eliminated.
	.loc 1 523 0
	ldr	r3, .L218
	ldr	r0, [r3, #48]
	.loc 1 524 0
	bx	lr
.L219:
	.align	2
.L218:
	.word	.LANCHOR0
	.cfi_endproc
.LFE160:
	.size	getSYSTIM4, .-getSYSTIM4
	.align	2
	.global	chk4TimeoutSYSTIM
	.thumb
	.thumb_func
	.type	chk4TimeoutSYSTIM, %function
chk4TimeoutSYSTIM:
.LFB161:
	.loc 1 527 0
	.cfi_startproc
	@ args = 0, pretend = 0, frame = 0
	@ frame_needed = 0, uses_anonymous_args = 0
	@ link register save eliminated.
.LVL52:
	.loc 1 530 0
	cmp	r2, #1
	beq	.L229
	.loc 1 532 0
	cmp	r2, #2
	beq	.L230
	.loc 1 534 0
	cmp	r2, #3
	bne	.L224
	.loc 1 535 0
	ldr	r3, .L232
	ldr	r3, [r3, #40]
.LVL53:
.L225:
	.loc 1 542 0
	cmp	r3, r0
	bcc	.L227
.L231:
	.loc 1 544 0
	add	r0, r0, r1
.LVL54:
	.loc 1 545 0
	cmp	r3, r0
	ite	cs
	movcs	r0, #0
	movcc	r0, #1
	bx	lr
.LVL55:
.L230:
	.loc 1 533 0
	ldr	r3, .L232
	ldr	r3, [r3, #36]
.LVL56:
	.loc 1 542 0
	cmp	r3, r0
	bcs	.L231
.L227:
.LVL57:
.LBB143:
	.loc 1 551 0
	mvns	r0, r0
.LVL58:
	.loc 1 552 0
	add	r0, r0, r3
.LVL59:
.LBE143:
	.loc 1 545 0
	cmp	r1, r0
	ite	ls
	movls	r0, #0
	movhi	r0, #1
	.loc 1 557 0
	bx	lr
.LVL60:
.L229:
	.loc 1 531 0
	ldr	r3, .L232
	ldr	r3, [r3, #32]
.LVL61:
	b	.L225
.LVL62:
.L224:
	.loc 1 536 0
	cmp	r2, #4
	bne	.L226
	.loc 1 537 0
	ldr	r3, .L232
	ldr	r3, [r3, #44]
.LVL63:
	b	.L225
.LVL64:
.L226:
	.loc 1 538 0
	cmp	r2, #5
	bne	.L222
	.loc 1 539 0
	ldr	r3, .L232
	ldr	r3, [r3, #24]
.LVL65:
	b	.L225
.LVL66:
.L222:
	.loc 1 540 0
	cmp	r2, #6
	.loc 1 541 0
	itt	eq
	ldreq	r3, .L232
	ldreq	r3, [r3, #28]
.LVL67:
	b	.L225
.L233:
	.align	2
.L232:
	.word	.LANCHOR0
	.cfi_endproc
.LFE161:
	.size	chk4TimeoutSYSTIM, .-chk4TimeoutSYSTIM
	.global	D6
	.global	D5
	.global	D4
	.global	D3
	.global	D2
	.comm	PERIOD_WS,4,4
	.comm	PERIOD_APA,4,4
	.comm	PERIOD,12,4
	.global	D1
	.global	g_tim13_val
	.global	g_tim14_val
	.global	g_tim4_val
	.global	g_tim5_val
	.global	g_tim2_val
	.global	g_tim3_val
	.global	g_tim12_val
	.bss
	.align	2
	.set	.LANCHOR0,. + 0
	.type	D1, %object
	.size	D1, 4
D1:
	.space	4
	.type	D5, %object
	.size	D5, 4
D5:
	.space	4
	.type	D2, %object
	.size	D2, 4
D2:
	.space	4
	.type	D3, %object
	.size	D3, 4
D3:
	.space	4
	.type	D4, %object
	.size	D4, 4
D4:
	.space	4
	.type	D6, %object
	.size	D6, 4
D6:
	.space	4
	.type	g_tim13_val, %object
	.size	g_tim13_val, 4
g_tim13_val:
	.space	4
	.type	g_tim14_val, %object
	.size	g_tim14_val, 4
g_tim14_val:
	.space	4
	.type	g_tim12_val, %object
	.size	g_tim12_val, 4
g_tim12_val:
	.space	4
	.type	g_tim3_val, %object
	.size	g_tim3_val, 4
g_tim3_val:
	.space	4
	.type	g_tim2_val, %object
	.size	g_tim2_val, 4
g_tim2_val:
	.space	4
	.type	g_tim5_val, %object
	.size	g_tim5_val, 4
g_tim5_val:
	.space	4
	.type	g_tim4_val, %object
	.size	g_tim4_val, 4
g_tim4_val:
	.space	4
	.text
.Letext0:
	.file 3 "../../../STM32F407/Libraries/CMSIS/ST/STM32F4xx/Include/stm32f4xx.h"
	.file 4 "/home/damir/msut/STM32F407/gcc-arm-none-eabi/arm-none-eabi/include/machine/_default_types.h"
	.file 5 "/home/damir/msut/STM32F407/gcc-arm-none-eabi/arm-none-eabi/include/stdint.h"