	.syntax unified
	.cpu cortex-m4
	.eabi_attribute 27, 3
	.eabi_attribute 28, 1
	.fpu fpv4-sp-d16
	.eabi_attribute 20, 1
	.eabi_attribute 21, 1
	.eabi_attribute 23, 3
	.eabi_attribute 24, 1
	.eabi_attribute 25, 1
	.eabi_attribute 26, 1
	.eabi_attribute 30, 2
	.eabi_attribute 34, 1
	.eabi_attribute 18, 4
	.thumb
	.file	"rtc.c"
	.text
.Ltext0:
	.cfi_sections	.debug_frame
	.align	2
	.global	initRTC
	.thumb
	.thumb_func
	.type	initRTC, %function
initRTC:
.LFB110:
	.file 1 "rtc.c"
	.loc 1 6 0
	.cfi_startproc
	@ args = 0, pretend = 0, frame = 0
	@ frame_needed = 0, uses_anonymous_args = 0
	@ link register save eliminated.
	.loc 1 9 0
	ldr	r3, .L10
	.loc 1 10 0
	ldr	r0, .L10+4
	.loc 1 9 0
	ldr	r2, [r3, #64]
	.loc 1 18 0
	ldr	r1, .L10+8
	.loc 1 9 0
	orr	r2, r2, #268435456
	.loc 1 6 0
	push	{r4}
	.cfi_def_cfa_offset 4
	.cfi_offset 4, -4
	.loc 1 9 0
	str	r2, [r3, #64]
	.loc 1 10 0
	ldr	r2, [r0]
	orr	r2, r2, #256
	str	r2, [r0]
	.loc 1 13 0
	ldr	r2, [r3, #8]
	orr	r2, r2, #524288
	str	r2, [r3, #8]
	.loc 1 15 0
	ldr	r2, [r3, #112]
	orr	r2, r2, #768
	str	r2, [r3, #112]
	.loc 1 16 0
	ldr	r2, [r3, #112]
	.loc 1 18 0
	movs	r4, #202
	.loc 1 16 0
	orr	r2, r2, #32768
	.loc 1 19 0
	movs	r0, #83
	.loc 1 16 0
	str	r2, [r3, #112]
	.loc 1 18 0
	str	r4, [r1, #36]
	.loc 1 19 0
	str	r0, [r1, #36]
	.loc 1 20 0
	ldr	r3, [r1, #12]
	orr	r3, r3, #32
	str	r3, [r1, #12]
.L2:
	.loc 1 21 0 discriminator 1
	ldr	r2, [r1, #12]
	ldr	r3, .L10+8
	lsls	r0, r2, #26
	bpl	.L2
	.loc 1 23 0
	ldr	r2, [r3, #12]
	orr	r2, r2, #128
	str	r2, [r3, #12]
.L3:
	.loc 1 24 0 discriminator 1
	ldr	r2, [r3, #12]
	ldr	r1, .L10+8
	lsls	r2, r2, #25
	bpl	.L3
	.loc 1 26 0
	mov	r3, #6488064
	str	r3, [r1, #16]
	.loc 1 27 0
	ldr	r3, [r1, #16]
	.loc 1 29 0
	ldr	r4, .L10+12
	.loc 1 30 0
	ldr	r0, .L10+16
	.loc 1 27 0
	orr	r3, r3, #9984
	orr	r3, r3, #15
	.loc 1 31 0
	movs	r2, #0
	.loc 1 27 0
	str	r3, [r1, #16]
	.loc 1 29 0
	str	r4, [r1]
	.loc 1 30 0
	str	r0, [r1, #4]
	.loc 1 31 0
	str	r2, [r1, #40]
	.loc 1 34 0
	ldr	r3, [r1, #12]
	.loc 1 38 0
	ldr	r4, [sp], #4
	.cfi_restore 4
	.cfi_def_cfa_offset 0
	.loc 1 34 0
	bic	r3, r3, #128
	str	r3, [r1, #12]
	.loc 1 35 0
	ldr	r3, [r1, #8]
	.loc 1 37 0
	movs	r2, #255
	.loc 1 35 0
	bic	r3, r3, #32768
	str	r3, [r1, #8]
	.loc 1 37 0
	str	r2, [r1, #36]
	.loc 1 38 0
	bx	lr
.L11:
	.align	2
.L10:
	.word	1073887232
	.word	1073770496
	.word	1073752064
	.word	547072
	.word	4727558
	.cfi_endproc
.LFE110:
	.size	initRTC, .-initRTC
	.align	2
	.global	getRTC
	.thumb
	.thumb_func
	.type	getRTC, %function
getRTC:
.LFB111:
	.loc 1 41 0
	.cfi_startproc
	@ args = 0, pretend = 0, frame = 24
	@ frame_needed = 0, uses_anonymous_args = 0
	push	{r4, r5, r6, r7, r8, lr}
	.cfi_def_cfa_offset 24
	.cfi_offset 4, -24
	.cfi_offset 5, -20
	.cfi_offset 6, -16
	.cfi_offset 7, -12
	.cfi_offset 8, -8
	.cfi_offset 14, -4
	sub	sp, sp, #24
	.cfi_def_cfa_offset 48
	.loc 1 44 0
	ldr	r3, .L26
	.loc 1 45 0
	ldr	r0, .L26+4
	.loc 1 44 0
	ldr	r6, [r3]
.LVL0:
	.loc 1 46 0
	add	r8, sp, #24
	.loc 1 45 0
	movs	r2, #0
	.loc 1 46 0
	strb	r2, [r8, #-20]!
.LVL1:
	.loc 1 45 0
	strb	r2, [r0]
	.loc 1 46 0
	mov	r3, r8
	add	r4, sp, #24
.LVL2:
.L13:
	rsb	r1, r8, r3
	.loc 1 51 0 discriminator 3
	strb	r2, [r3], #1
.LVL3:
	.loc 1 49 0 discriminator 3
	cmp	r3, r4
	.loc 1 52 0 discriminator 3
	strb	r2, [r0, r1]
.LVL4:
	.loc 1 49 0 discriminator 3
	bne	.L13
	.loc 1 55 0
	add	r7, sp, #24
	ubfx	r3, r6, #20, #2
.LVL5:
	str	r3, [r7, #-24]!
	.loc 1 56 0
	mov	r2, r8
	movs	r0, #32
	mov	r1, r7
	bl	getStr4NumMISC
.LVL6:
	add	r5, sp, #3
	.loc 1 57 0
	ldr	r0, .L26+4
	mov	r1, r8
	bl	catstrMISC
.LVL7:
	add	r4, sp, #23
	mov	r3, r5
	.loc 1 60 0
	movs	r2, #0
.LVL8:
.L14:
	.loc 1 60 0 is_stmt 0 discriminator 3
	strb	r2, [r3, #1]!
.LVL9:
	.loc 1 59 0 is_stmt 1 discriminator 3
	cmp	r3, r4
	bne	.L14
	.loc 1 62 0
	ubfx	r3, r6, #16, #3
.LVL10:
	.loc 1 63 0
	mov	r2, r8
	movs	r0, #32
	mov	r1, r7
	.loc 1 62 0
	str	r3, [sp]
	.loc 1 63 0
	bl	getStr4NumMISC
.LVL11:
	.loc 1 64 0
	ldr	r0, .L26+4
	mov	r1, r8
	bl	catstrMISC
.LVL12:
	mov	r3, r5
	.loc 1 67 0
	movs	r2, #0
.LVL13:
.L15:
	.loc 1 67 0 is_stmt 0 discriminator 3
	strb	r2, [r3, #1]!
.LVL14:
	.loc 1 66 0 is_stmt 1 discriminator 3
	cmp	r4, r3
	bne	.L15
	.loc 1 69 0
	ubfx	r3, r6, #12, #3
.LVL15:
	.loc 1 70 0
	mov	r2, r8
	movs	r0, #32
	mov	r1, r7
	.loc 1 69 0
	str	r3, [sp]
	.loc 1 70 0
	bl	getStr4NumMISC
.LVL16:
	.loc 1 71 0
	ldr	r0, .L26+4
	mov	r1, r8
	bl	catstrMISC
.LVL17:
	mov	r3, r5
	.loc 1 74 0
	movs	r2, #0
.LVL18:
.L16:
	.loc 1 74 0 is_stmt 0 discriminator 3
	strb	r2, [r3, #1]!
.LVL19:
	.loc 1 73 0 is_stmt 1 discriminator 3
	cmp	r4, r3
	bne	.L16
	.loc 1 76 0
	ubfx	r3, r6, #8, #4
.LVL20:
	.loc 1 77 0
	mov	r2, r8
	movs	r0, #32
	mov	r1, r7
	.loc 1 76 0
	str	r3, [sp]
	.loc 1 77 0
	bl	getStr4NumMISC
.LVL21:
	.loc 1 78 0
	ldr	r0, .L26+4
	mov	r1, r8
	bl	catstrMISC
.LVL22:
	mov	r3, r5
	.loc 1 82 0
	movs	r2, #0
.LVL23:
.L17:
	.loc 1 82 0 is_stmt 0 discriminator 3
	strb	r2, [r3, #1]!
.LVL24:
	.loc 1 81 0 is_stmt 1 discriminator 3
	cmp	r4, r3
	bne	.L17
	.loc 1 84 0
	ubfx	r3, r6, #4, #3
.LVL25:
	.loc 1 85 0
	movs	r0, #32
	mov	r1, r7
	mov	r2, r8
	.loc 1 84 0
	str	r3, [sp]
	.loc 1 85 0
	bl	getStr4NumMISC
.LVL26:
	.loc 1 86 0
	ldr	r0, .L26+4
	mov	r1, r8
	bl	catstrMISC
.LVL27:
	.loc 1 90 0
	movs	r3, #0
.LVL28:
.L18:
	.loc 1 90 0 is_stmt 0 discriminator 3
	strb	r3, [r5, #1]!
.LVL29:
	.loc 1 89 0 is_stmt 1 discriminator 3
	cmp	r4, r5
	bne	.L18
	.loc 1 93 0
	mov	r1, r7
	mov	r2, r8
	.loc 1 92 0
	and	r6, r6, #15
.LVL30:
	.loc 1 93 0
	movs	r0, #32
	.loc 1 92 0
	str	r6, [sp]
	.loc 1 93 0
	bl	getStr4NumMISC
.LVL31:
	.loc 1 94 0
	mov	r1, r8
	ldr	r0, .L26+4
	bl	catstrMISC
.LVL32:
	.loc 1 96 0
	ldr	r0, .L26+4
	add	sp, sp, #24
	.cfi_def_cfa_offset 24
	@ sp needed
	pop	{r4, r5, r6, r7, r8, pc}
.LVL33:
.L27:
	.align	2
.L26:
	.word	1073752064
	.word	rtc_str
	.cfi_endproc
.LFE111:
	.size	getRTC, .-getRTC
	.comm	rtc_str,20,4
.Letext0:
	.file 2 "/home/damir/msut/STM32F407/gcc-arm-none-eabi/arm-none-eabi/include/machine/_default_types.h"
	.file 3 "/home/damir/msut/STM32F407/gcc-arm-none-eabi/arm-none-eabi/include/stdint.h"
	.file 4 "../../../STM32F407/Libraries/CMSIS/ST/STM32F4xx/Include/stm32f4xx.h"
	.file 5 "../../../STM32F407/Libraries/CMSIS/Include/core_cm4.h"
	.file 6 "misc.h"